; Function Attrs: nounwind sspstrong uwtable
define dso_local void @force_sig_fault(i32 noundef %sig, i32 noundef %code, i64 noundef %addr) local_unnamed_addr #1 {
entry:
  %_now.i.i.i = alloca %struct.timeval, align 8
  %0 = tail call align 8 ptr @llvm.threadlocal.address.p0(ptr align 8 @thread_cpu)
  %1 = load ptr, ptr %0, align 8
  %add.ptr.i = getelementptr i8, ptr %1, i64 10176
  %opaque.i = getelementptr i8, ptr %1, i64 624
  %2 = load ptr, ptr %opaque.i, align 16
  call void @llvm.lifetime.start.p0(i64 16, ptr nonnull %_now.i.i.i)
  %3 = load i32, ptr @trace_events_enabled_count, align 4
  %tobool.i.i.i = icmp ne i32 %3, 0
  %4 = load i16, ptr @_TRACE_USER_QUEUE_SIGNAL_DSTATE, align 2
  %tobool4.i.i.i = icmp ne i16 %4, 0
  %or.cond.i.i.i = select i1 %tobool.i.i.i, i1 %tobool4.i.i.i, i1 false
  br i1 %or.cond.i.i.i, label %land.lhs.true5.i.i.i, label %queue_signal.exit

land.lhs.true5.i.i.i:                             ; preds = %entry
  %5 = load i32, ptr @qemu_loglevel, align 4
  %and.i.i.i.i = and i32 %5, 32768
  %cmp.i.not.i.i.i = icmp eq i32 %and.i.i.i.i, 0
  br i1 %cmp.i.not.i.i.i, label %queue_signal.exit, label %if.then.i.i.i

if.then.i.i.i:                                    ; preds = %land.lhs.true5.i.i.i
  %6 = load i8, ptr @message_with_timestamp, align 1
  %tobool7.i.i.i = trunc i8 %6 to i1
  br i1 %tobool7.i.i.i, label %if.then8.i.i.i, label %if.else.i.i.i

if.then8.i.i.i:                                   ; preds = %if.then.i.i.i
  %call9.i.i.i = call i32 @gettimeofday(ptr noundef nonnull %_now.i.i.i, ptr noundef null) #16
  %call10.i.i.i = tail call i32 @qemu_get_thread_id() #16
  %7 = load i64, ptr %_now.i.i.i, align 8
  %tv_usec.i.i.i = getelementptr inbounds nuw i8, ptr %_now.i.i.i, i64 8
  %8 = load i64, ptr %tv_usec.i.i.i, align 8
  tail call void (ptr, ...) @qemu_log(ptr noundef nonnull @.str.10, i32 noundef %call10.i.i.i, i64 noundef %7, i64 noundef %8, ptr noundef nonnull %add.ptr.i, i32 noundef %sig) #16
  br label %queue_signal.exit

if.else.i.i.i:                                    ; preds = %if.then.i.i.i
  tail call void (ptr, ...) @qemu_log(ptr noundef nonnull @.str.11, ptr noundef nonnull %add.ptr.i, i32 noundef %sig) #16
  br label %queue_signal.exit

queue_signal.exit:                                ; preds = %entry, %land.lhs.true5.i.i.i, %if.then8.i.i.i, %if.else.i.i.i
  call void @llvm.lifetime.end.p0(i64 16, ptr nonnull %_now.i.i.i)
  %and.i.i = and i32 %code, 65535
  %or.i.i = or disjoint i32 %and.i.i, 196608
  %sync_signal.i = getelementptr inbounds nuw i8, ptr %2, i64 64
  %info3.i = getelementptr inbounds nuw i8, ptr %2, i64 72
  store i32 %sig, ptr %info3.i, align 8
  %info.sroa.3.0.info3.i.sroa_idx = getelementptr inbounds nuw i8, ptr %2, i64 76
  store i32 0, ptr %info.sroa.3.0.info3.i.sroa_idx, align 4
  %info.sroa.4.0.info3.i.sroa_idx = getelementptr inbounds nuw i8, ptr %2, i64 80
  store i32 %or.i.i, ptr %info.sroa.4.0.info3.i.sroa_idx, align 8
  %info.sroa.7.0.info3.i.sroa_idx = getelementptr inbounds nuw i8, ptr %2, i64 84
  store i32 0, ptr %info.sroa.7.0.info3.i.sroa_idx, align 4
  %info.sroa.72.0.info3.i.sroa_idx = getelementptr inbounds nuw i8, ptr %2, i64 88
  store i64 %addr, ptr %info.sroa.72.0.info3.i.sroa_idx, align 8
  %info.sroa.8.0.info3.i.sroa_idx = getelementptr inbounds nuw i8, ptr %2, i64 96
  tail call void @llvm.memset.p0.i64(ptr noundef nonnull align 8 dereferenceable(104) %info.sroa.8.0.info3.i.sroa_idx, i8 0, i64 104, i1 false)
  store i32 %sig, ptr %sync_signal.i, align 8
  %signal_pending.i = getelementptr inbounds nuw i8, ptr %2, i64 9164
  store atomic i32 1, ptr %signal_pending.i monotonic, align 4
  ret void
}